; Function Attrs: mustprogress nofree norecurse nosync nounwind willreturn memory(argmem: readwrite) uwtable
define range(i32 0, 2) i32 @SSL_set_max_early_data(ptr noundef captures(address_is_null) %0, i32 noundef %1) local_unnamed_addr #7 {
  %3 = icmp eq ptr %0, null
  br i1 %3, label %.thread, label %4

4:                                                ; preds = %2
  %5 = load i32, ptr %0, align 8, !tbaa !19
  %6 = icmp eq i32 %5, 0
  br i1 %6, label %7, label %.thread

7:                                                ; preds = %4
  %8 = getelementptr inbounds nuw i8, ptr %0, i64 5440
  store i32 %1, ptr %8, align 8, !tbaa !134
  br label %.thread

.thread:                                          ; preds = %2, %4, %7
  %.0 = phi i32 [ 1, %7 ], [ 0, %4 ], [ 0, %2 ]
  ret i32 %.0
}